; Function Attrs: null_pointer_is_valid sspstrong uwtable
define internal ptr @btl2cap_cid_value(ptr noundef %0) #1 {
  %2 = getelementptr inbounds nuw i8, ptr %0, i64 408
  %3 = load ptr, ptr %2, align 8
  %4 = load i32, ptr @proto_btl2cap, align 4
  %5 = tail call ptr @p_get_proto_data(ptr noundef %3, ptr noundef %0, i32 noundef %4, i32 noundef 0)
  %.not = icmp eq ptr %5, null
  br i1 %.not, label %10, label %6

6:                                                ; preds = %1
  %7 = load i16, ptr %5, align 2
  %8 = zext i16 %7 to i64
  %9 = inttoptr i64 %8 to ptr
  br label %10

10:                                               ; preds = %1, %6
  %.0 = phi ptr [ %9, %6 ], [ null, %1 ]
  ret ptr %.0
}